(dp0
S'sein.'
p1
(lp2
S'test2.txt'
p3
asS'A'
p4
(lp5
g3
asS'wie'
p6
(lp7
S'test1.txt'
p8
asS'Koalition'
p9
(lp10
g3
asS'Reinbold'
p11
(lp12
g8
asS'Gysi'
p13
(lp14
g8
ag8
asS'-'
p15
(lp16
g8
ag3
asS'Gregor'
p17
(lp18
g8
asS'F\xc3\xbchrung'
p19
(lp20
g3
asS'am'
p21
(lp22
g8
asS'sollen'
p23
(lp24
g3
asS'an'
p25
(lp26
g8
asS'milit\xc3\xa4rische'
p27
(lp28
g3
asS'bereits,'
p29
(lp30
g8
asS'ersetzt.'
p31
(lp32
g8
asS'in'
p33
(lp34
g3
asS'einen'
p35
(lp36
g8
asS'gefallen'
p37
(lp38
g3
asS'mehr'
p39
(lp40
g3
asS'als'
p41
(lp42
g8
ag3
asS'eine'
p43
(lp44
g3
asS'er'
p45
(lp46
g8
ag8
asS'endlich'
p47
(lp48
g8
asS'Irak'
p49
(lp50
g3
asS'alle'
p51
(lp52
g8
asS'Erfolge'
p53
(lp54
g3
asS'Genossen'
p55
(lp56
g8
asS'tote'
p57
(lp58
g3
asS'auf'
p59
(lp60
g8
ag3
asS'10.000'
p61
(lp62
g3
ag3
asS'Fraktionschef'
p63
(lp64
g8
asS'Von'
p65
(lp66
g8
asS'unter'
p67
(lp68
g3
asS'dennoch'
p69
(lp70
g3
asS'Linkspartei:'
p71
(lp72
g8
asS'sich'
p73
(lp74
g8
asS'sie'
p75
(lp76
g8
asS'Unersetzlichen'
p77
(lp78
g8
asS'Washingtons'
p79
(lp80
g3
asS'feiert'
p81
(lp82
g3
asS'Wochenende'
p83
(lp84
g8
asS'Syrien'
p85
(lp86
g3
asS'facht'
p87
(lp88
g8
asS'und'
p89
(lp90
g3
asS'Tritt'
p91
(lp92
g8
asS'Seit'
p93
(lp94
g8
asS'Die'
p95
(lp96
g8
ag3
asS'Parteitag'
p97
(lp98
g8
asS'l\xc3\xa4sst'
p99
(lp100
g8
asS'k\xc3\xa4mpft'
p101
(lp102
g3
asS'Miliz'
p103
(lp104
g3
asS'bereits'
p105
(lp106
g3
asS'dabei'
p107
(lp108
g3
asS'Fabian'
p109
(lp110
g8
asS'Extremisten'
p111
(lp112
g3
asS'gegen'
p113
(lp114
g3
asS'weiter'
p115
(lp116
g3
asS'man'
p117
(lp118
g8
asS'Wochen'
p119
(lp120
g8
asS'Staat"'
p121
(lp122
g3
asS'"Islamischen'
p123
(lp124
g3
asS'den'
p125
(lp126
g3
asS'Spekulationen'
p127
(lp128
g8
asS'der'
p129
(lp130
g8
asS'gr\xc3\xbcbeln'
p131
(lp132
g8
asS'erkl\xc3\xa4ren.'
p133
(lp134
g8
asS'will'
p135
(lp136
g8
asS'internationale'
p137
(lp138
g3
asS'Im'
p139
(lp140
g3
asS'dem'
p141
(lp142
g8
asS'IS-K\xc3\xa4mpfer'
p143
(lp144
g3
asS'Linken'
p145
(lp146
g8
asS'beziffern'
p147
(lp148
g3
asS'zappeln'
p149
(lp150
g8
asS'ab?'
p151
(lp152
g8
as.